target datalayout = "e-m:e-p270:32:32-p271:32:32-p272:64:64-i64:64-i128:128-f80:128-n8:16:32:64-S128"
target triple = "x86_64-pc-linux-gnu"

%struct.Hop_Man_t_ = type { ptr, ptr, ptr, ptr, %struct.Hop_Obj_t_, [6 x i32], i32, i32, ptr, i32, ptr, i32, i32, i32, ptr, ptr, ptr, i64, i64 }
%struct.Hop_Obj_t_ = type { %union.anon, %union.anon.0, ptr, ptr, i32, i32 }
%union.anon = type { ptr }
%union.anon.0 = type { ptr }
%struct.Vec_Ptr_t_ = type { i32, i32, ptr }

; Function Attrs: inlinehint nounwind uwtable
define internal i32 @Hop_ObjRefs(ptr noundef %0) #2 {
  %2 = alloca ptr, align 8
  store ptr %0, ptr %2, align 8, !tbaa !18
  %3 = load ptr, ptr %2, align 8, !tbaa !18
  %4 = getelementptr inbounds nuw %struct.Hop_Obj_t_, ptr %3, i32 0, i32 4
  %5 = load i32, ptr %4, align 8
  %6 = lshr i32 %5, 6
  ret i32 %6
}

; Function Attrs: inlinehint nounwind uwtable
define internal ptr @Vec_PtrEntry(ptr noundef %0, i32 noundef %1) #2 {
  %3 = alloca ptr, align 8
  %4 = alloca i32, align 4
  store ptr %0, ptr %3, align 8, !tbaa !8
  store i32 %1, ptr %4, align 4, !tbaa !10
  %5 = load ptr, ptr %3, align 8, !tbaa !8
  %6 = getelementptr inbounds nuw %struct.Vec_Ptr_t_, ptr %5, i32 0, i32 2
  %7 = load ptr, ptr %6, align 8, !tbaa !25
  %8 = load i32, ptr %4, align 4, !tbaa !10
  %9 = sext i32 %8 to i64
  %10 = getelementptr inbounds ptr, ptr %7, i64 %9
  %11 = load ptr, ptr %10, align 8, !tbaa !26
  ret ptr %11
}

; Function Attrs: inlinehint nounwind uwtable
define internal i32 @Vec_PtrSize(ptr noundef %0) #2 {
  %2 = alloca ptr, align 8
  store ptr %0, ptr %2, align 8, !tbaa !8
  %3 = load ptr, ptr %2, align 8, !tbaa !8
  %4 = getelementptr inbounds nuw %struct.Vec_Ptr_t_, ptr %3, i32 0, i32 1
  %5 = load i32, ptr %4, align 4, !tbaa !22
  ret i32 %5
}

; Function Attrs: nounwind uwtable
define i32 @Abc_NtkHaigResetReprs(ptr noundef %0) #0 {
  %2 = alloca ptr, align 8
  %3 = alloca ptr, align 8
  %4 = alloca ptr, align 8
  %5 = alloca i32, align 4
  %6 = alloca i32, align 4
  %7 = alloca i32, align 4
  %8 = alloca i32, align 4
  %9 = alloca i32, align 4
  store ptr %0, ptr %2, align 8, !tbaa !3
  call void @llvm.lifetime.start.p0(i64 8, ptr %3) #7
  call void @llvm.lifetime.start.p0(i64 8, ptr %4) #7
  call void @llvm.lifetime.start.p0(i64 4, ptr %5) #7
  call void @llvm.lifetime.start.p0(i64 4, ptr %6) #7
  call void @llvm.lifetime.start.p0(i64 4, ptr %7) #7
  call void @llvm.lifetime.start.p0(i64 4, ptr %8) #7
  call void @llvm.lifetime.start.p0(i64 4, ptr %9) #7
  store i32 0, ptr %5, align 4, !tbaa !10
  br label %10

10:                                               ; preds = %51, %1
  %11 = load i32, ptr %5, align 4, !tbaa !10
  %12 = load ptr, ptr %2, align 8, !tbaa !3
  %13 = getelementptr inbounds nuw %struct.Hop_Man_t_, ptr %12, i32 0, i32 2
  %14 = load ptr, ptr %13, align 8, !tbaa !12
  %15 = call i32 @Vec_PtrSize(ptr noundef %14)
  %16 = icmp slt i32 %11, %15
  br i1 %16, label %17, label %23

17:                                               ; preds = %10
  %18 = load ptr, ptr %2, align 8, !tbaa !3
  %19 = getelementptr inbounds nuw %struct.Hop_Man_t_, ptr %18, i32 0, i32 2
  %20 = load ptr, ptr %19, align 8, !tbaa !12
  %21 = load i32, ptr %5, align 4, !tbaa !10
  %22 = call ptr @Vec_PtrEntry(ptr noundef %20, i32 noundef %21)
  store ptr %22, ptr %3, align 8, !tbaa !18
  br label %23

23:                                               ; preds = %17, %10
  %24 = phi i1 [ false, %10 ], [ true, %17 ]
  br i1 %24, label %25, label %54

25:                                               ; preds = %23
  %26 = load ptr, ptr %3, align 8, !tbaa !18
  %27 = getelementptr inbounds nuw %struct.Hop_Obj_t_, ptr %26, i32 0, i32 0
  %28 = load ptr, ptr %27, align 8, !tbaa !19
  store ptr %28, ptr %4, align 8, !tbaa !18
  %29 = load ptr, ptr %4, align 8, !tbaa !18
  %30 = icmp ne ptr %29, null
  br i1 %30, label %31, label %41

31:                                               ; preds = %25
  %32 = load ptr, ptr %4, align 8, !tbaa !18
  %33 = getelementptr inbounds nuw %struct.Hop_Obj_t_, ptr %32, i32 0, i32 0
  %34 = load ptr, ptr %33, align 8, !tbaa !19
  %35 = load ptr, ptr %3, align 8, !tbaa !18
  %36 = icmp eq ptr %34, %35
  br i1 %36, label %37, label %41

37:                                               ; preds = %31
  %38 = load ptr, ptr %4, align 8, !tbaa !18
  %39 = load ptr, ptr %4, align 8, !tbaa !18
  %40 = getelementptr inbounds nuw %struct.Hop_Obj_t_, ptr %39, i32 0, i32 0
  store ptr %38, ptr %40, align 8, !tbaa !19
  br label %41

41:                                               ; preds = %37, %31, %25
  %42 = load ptr, ptr %3, align 8, !tbaa !18
  %43 = getelementptr inbounds nuw %struct.Hop_Obj_t_, ptr %42, i32 0, i32 0
  %44 = load ptr, ptr %43, align 8, !tbaa !19
  %45 = load ptr, ptr %3, align 8, !tbaa !18
  %46 = icmp eq ptr %44, %45
  br i1 %46, label %47, label %50

47:                                               ; preds = %41
  %48 = load ptr, ptr %3, align 8, !tbaa !18
  %49 = getelementptr inbounds nuw %struct.Hop_Obj_t_, ptr %48, i32 0, i32 0
  store ptr null, ptr %49, align 8, !tbaa !19
  br label %50

50:                                               ; preds = %47, %41
  br label %51

51:                                               ; preds = %50
  %52 = load i32, ptr %5, align 4, !tbaa !10
  %53 = add nsw i32 %52, 1
  store i32 %53, ptr %5, align 4, !tbaa !10
  br label %10, !llvm.loop !75

54:                                               ; preds = %23
  store i32 0, ptr %5, align 4, !tbaa !10
  br label %55

55:                                               ; preds = %85, %54
  %56 = load i32, ptr %5, align 4, !tbaa !10
  %57 = load ptr, ptr %2, align 8, !tbaa !3
  %58 = getelementptr inbounds nuw %struct.Hop_Man_t_, ptr %57, i32 0, i32 2
  %59 = load ptr, ptr %58, align 8, !tbaa !12
  %60 = call i32 @Vec_PtrSize(ptr noundef %59)
  %61 = icmp slt i32 %56, %60
  br i1 %61, label %62, label %68

62:                                               ; preds = %55
  %63 = load ptr, ptr %2, align 8, !tbaa !3
  %64 = getelementptr inbounds nuw %struct.Hop_Man_t_, ptr %63, i32 0, i32 2
  %65 = load ptr, ptr %64, align 8, !tbaa !12
  %66 = load i32, ptr %5, align 4, !tbaa !10
  %67 = call ptr @Vec_PtrEntry(ptr noundef %65, i32 noundef %66)
  store ptr %67, ptr %3, align 8, !tbaa !18
  br label %68

68:                                               ; preds = %62, %55
  %69 = phi i1 [ false, %55 ], [ true, %62 ]
  br i1 %69, label %70, label %88

70:                                               ; preds = %68
  %71 = load ptr, ptr %3, align 8, !tbaa !18
  %72 = getelementptr inbounds nuw %struct.Hop_Obj_t_, ptr %71, i32 0, i32 0
  %73 = load ptr, ptr %72, align 8, !tbaa !19
  %74 = icmp eq ptr %73, null
  br i1 %74, label %75, label %76

75:                                               ; preds = %70
  br label %85

76:                                               ; preds = %70
  %77 = load ptr, ptr %3, align 8, !tbaa !18
  %78 = call ptr @Hop_ObjRepr(ptr noundef %77)
  store ptr %78, ptr %4, align 8, !tbaa !18
  %79 = load ptr, ptr %4, align 8, !tbaa !18
  %80 = load ptr, ptr %4, align 8, !tbaa !18
  %81 = getelementptr inbounds nuw %struct.Hop_Obj_t_, ptr %80, i32 0, i32 0
  store ptr %79, ptr %81, align 8, !tbaa !19
  %82 = load ptr, ptr %4, align 8, !tbaa !18
  %83 = load ptr, ptr %3, align 8, !tbaa !18
  %84 = getelementptr inbounds nuw %struct.Hop_Obj_t_, ptr %83, i32 0, i32 0
  store ptr %82, ptr %84, align 8, !tbaa !19
  br label %85

85:                                               ; preds = %76, %75
  %86 = load i32, ptr %5, align 4, !tbaa !10
  %87 = add nsw i32 %86, 1
  store i32 %87, ptr %5, align 4, !tbaa !10
  br label %55, !llvm.loop !76

88:                                               ; preds = %68
  store i32 0, ptr %5, align 4, !tbaa !10
  br label %89

89:                                               ; preds = %132, %88
  %90 = load i32, ptr %5, align 4, !tbaa !10
  %91 = load ptr, ptr %2, align 8, !tbaa !3
  %92 = getelementptr inbounds nuw %struct.Hop_Man_t_, ptr %91, i32 0, i32 2
  %93 = load ptr, ptr %92, align 8, !tbaa !12
  %94 = call i32 @Vec_PtrSize(ptr noundef %93)
  %95 = icmp slt i32 %90, %94
  br i1 %95, label %96, label %102

96:                                               ; preds = %89
  %97 = load ptr, ptr %2, align 8, !tbaa !3
  %98 = getelementptr inbounds nuw %struct.Hop_Man_t_, ptr %97, i32 0, i32 2
  %99 = load ptr, ptr %98, align 8, !tbaa !12
  %100 = load i32, ptr %5, align 4, !tbaa !10
  %101 = call ptr @Vec_PtrEntry(ptr noundef %99, i32 noundef %100)
  store ptr %101, ptr %3, align 8, !tbaa !18
  br label %102

102:                                              ; preds = %96, %89
  %103 = phi i1 [ false, %89 ], [ true, %96 ]
  br i1 %103, label %104, label %135

104:                                              ; preds = %102
  %105 = load ptr, ptr %3, align 8, !tbaa !18
  %106 = getelementptr inbounds nuw %struct.Hop_Obj_t_, ptr %105, i32 0, i32 0
  %107 = load ptr, ptr %106, align 8, !tbaa !19
  %108 = icmp eq ptr %107, null
  br i1 %108, label %109, label %110

109:                                              ; preds = %104
  br label %132

110:                                              ; preds = %104
  %111 = load ptr, ptr %3, align 8, !tbaa !18
  %112 = call ptr @Hop_ObjRepr(ptr noundef %111)
  store ptr %112, ptr %4, align 8, !tbaa !18
  %113 = load ptr, ptr %4, align 8, !tbaa !18
  %114 = getelementptr inbounds nuw %struct.Hop_Obj_t_, ptr %113, i32 0, i32 5
  %115 = load i32, ptr %114, align 4, !tbaa !29
  %116 = load ptr, ptr %3, align 8, !tbaa !18
  %117 = getelementptr inbounds nuw %struct.Hop_Obj_t_, ptr %116, i32 0, i32 5
  %118 = load i32, ptr %117, align 4, !tbaa !29
  %119 = icmp sgt i32 %115, %118
  br i1 %119, label %120, label %127

120:                                              ; preds = %110
  %121 = load ptr, ptr %3, align 8, !tbaa !18
  %122 = load ptr, ptr %4, align 8, !tbaa !18
  %123 = getelementptr inbounds nuw %struct.Hop_Obj_t_, ptr %122, i32 0, i32 0
  store ptr %121, ptr %123, align 8, !tbaa !19
  %124 = load ptr, ptr %3, align 8, !tbaa !18
  %125 = load ptr, ptr %3, align 8, !tbaa !18
  %126 = getelementptr inbounds nuw %struct.Hop_Obj_t_, ptr %125, i32 0, i32 0
  store ptr %124, ptr %126, align 8, !tbaa !19
  br label %131

127:                                              ; preds = %110
  %128 = load ptr, ptr %4, align 8, !tbaa !18
  %129 = load ptr, ptr %3, align 8, !tbaa !18
  %130 = getelementptr inbounds nuw %struct.Hop_Obj_t_, ptr %129, i32 0, i32 0
  store ptr %128, ptr %130, align 8, !tbaa !19
  br label %131

131:                                              ; preds = %127, %120
  br label %132

132:                                              ; preds = %131, %109
  %133 = load i32, ptr %5, align 4, !tbaa !10
  %134 = add nsw i32 %133, 1
  store i32 %134, ptr %5, align 4, !tbaa !10
  br label %89, !llvm.loop !77

135:                                              ; preds = %102
  store i32 0, ptr %9, align 4, !tbaa !10
  store i32 0, ptr %8, align 4, !tbaa !10
  store i32 0, ptr %6, align 4, !tbaa !10
  store i32 0, ptr %7, align 4, !tbaa !10
  store i32 0, ptr %5, align 4, !tbaa !10
  br label %136

136:                                              ; preds = %182, %135
  %137 = load i32, ptr %5, align 4, !tbaa !10
  %138 = load ptr, ptr %2, align 8, !tbaa !3
  %139 = getelementptr inbounds nuw %struct.Hop_Man_t_, ptr %138, i32 0, i32 2
  %140 = load ptr, ptr %139, align 8, !tbaa !12
  %141 = call i32 @Vec_PtrSize(ptr noundef %140)
  %142 = icmp slt i32 %137, %141
  br i1 %142, label %143, label %149

143:                                              ; preds = %136
  %144 = load ptr, ptr %2, align 8, !tbaa !3
  %145 = getelementptr inbounds nuw %struct.Hop_Man_t_, ptr %144, i32 0, i32 2
  %146 = load ptr, ptr %145, align 8, !tbaa !12
  %147 = load i32, ptr %5, align 4, !tbaa !10
  %148 = call ptr @Vec_PtrEntry(ptr noundef %146, i32 noundef %147)
  store ptr %148, ptr %3, align 8, !tbaa !18
  br label %149

149:                                              ; preds = %143, %136
  %150 = phi i1 [ false, %136 ], [ true, %143 ]
  br i1 %150, label %151, label %185

151:                                              ; preds = %149
  %152 = load ptr, ptr %3, align 8, !tbaa !18
  %153 = getelementptr inbounds nuw %struct.Hop_Obj_t_, ptr %152, i32 0, i32 0
  %154 = load ptr, ptr %153, align 8, !tbaa !19
  %155 = icmp eq ptr %154, null
  br i1 %155, label %156, label %157

156:                                              ; preds = %151
  br label %182

157:                                              ; preds = %151
  %158 = load i32, ptr %7, align 4, !tbaa !10
  %159 = add nsw i32 %158, 1
  store i32 %159, ptr %7, align 4, !tbaa !10
  %160 = load ptr, ptr %3, align 8, !tbaa !18
  %161 = getelementptr inbounds nuw %struct.Hop_Obj_t_, ptr %160, i32 0, i32 0
  %162 = load ptr, ptr %161, align 8, !tbaa !19
  %163 = load ptr, ptr %3, align 8, !tbaa !18
  %164 = icmp eq ptr %162, %163
  br i1 %164, label %165, label %168

165:                                              ; preds = %157
  %166 = load i32, ptr %6, align 4, !tbaa !10
  %167 = add nsw i32 %166, 1
  store i32 %167, ptr %6, align 4, !tbaa !10
  br label %179

168:                                              ; preds = %157
  %169 = load ptr, ptr %3, align 8, !tbaa !18
  %170 = call i32 @Hop_ObjRefs(ptr noundef %169)
  %171 = icmp sgt i32 %170, 0
  br i1 %171, label %172, label %175

172:                                              ; preds = %168
  %173 = load i32, ptr %8, align 4, !tbaa !10
  %174 = add nsw i32 %173, 1
  store i32 %174, ptr %8, align 4, !tbaa !10
  br label %178

175:                                              ; preds = %168
  %176 = load i32, ptr %9, align 4, !tbaa !10
  %177 = add nsw i32 %176, 1
  store i32 %177, ptr %9, align 4, !tbaa !10
  br label %178

178:                                              ; preds = %175, %172
  br label %179

179:                                              ; preds = %178, %165
  %180 = load ptr, ptr %3, align 8, !tbaa !18
  %181 = call ptr @Hop_ObjRepr(ptr noundef %180)
  store ptr %181, ptr %4, align 8, !tbaa !18
  br label %182

182:                                              ; preds = %179, %156
  %183 = load i32, ptr %5, align 4, !tbaa !10
  %184 = add nsw i32 %183, 1
  store i32 %184, ptr %5, align 4, !tbaa !10
  br label %136, !llvm.loop !78

185:                                              ; preds = %149
  %186 = load i32, ptr %8, align 4, !tbaa !10
  call void @llvm.lifetime.end.p0(i64 4, ptr %9) #7
  call void @llvm.lifetime.end.p0(i64 4, ptr %8) #7
  call void @llvm.lifetime.end.p0(i64 4, ptr %7) #7
  call void @llvm.lifetime.end.p0(i64 4, ptr %6) #7
  call void @llvm.lifetime.end.p0(i64 4, ptr %5) #7
  call void @llvm.lifetime.end.p0(i64 8, ptr %4) #7
  call void @llvm.lifetime.end.p0(i64 8, ptr %3) #7
  ret i32 %186
}