; Function Attrs: nounwind uwtable
define i32 @Abc_NtkHaigResetReprs(ptr noundef readonly captures(none) %0) local_unnamed_addr #0 {
  %2 = getelementptr inbounds nuw i8, ptr %0, i64 16
  %3 = load ptr, ptr %2, align 8, !tbaa !11
  %4 = getelementptr i8, ptr %3, i64 4
  %.val7884 = load i32, ptr %4, align 4, !tbaa !3
  %5 = icmp sgt i32 %.val7884, 0
  br i1 %5, label %.lr.ph, label %.critedge6

.critedge.preheader:                              ; preds = %20
  %6 = icmp sgt i32 %.val78, 0
  br i1 %6, label %.lr.ph88, label %.critedge6

.lr.ph:                                           ; preds = %1, %20
  %indvars.iv = phi i64 [ %indvars.iv.next, %20 ], [ 0, %1 ]
  %7 = phi ptr [ %21, %20 ], [ %3, %1 ]
  %8 = getelementptr i8, ptr %7, i64 8
  %.val82 = load ptr, ptr %8, align 8, !tbaa !10
  %9 = getelementptr inbounds nuw ptr, ptr %.val82, i64 %indvars.iv
  %10 = load ptr, ptr %9, align 8, !tbaa !18
  %11 = load ptr, ptr %10, align 8, !tbaa !19
  %.not75 = icmp eq ptr %11, null
  br i1 %.not75, label %16, label %12

12:                                               ; preds = %.lr.ph
  %13 = load ptr, ptr %11, align 8, !tbaa !19
  %14 = icmp eq ptr %13, %10
  br i1 %14, label %15, label %16

15:                                               ; preds = %12
  store ptr %11, ptr %11, align 8, !tbaa !19
  %.pre = load ptr, ptr %10, align 8, !tbaa !19
  br label %16

16:                                               ; preds = %15, %12, %.lr.ph
  %17 = phi ptr [ %.pre, %15 ], [ %11, %12 ], [ null, %.lr.ph ]
  %18 = icmp eq ptr %17, %10
  br i1 %18, label %19, label %20

19:                                               ; preds = %16
  store ptr null, ptr %10, align 8, !tbaa !19
  br label %20

20:                                               ; preds = %16, %19
  %indvars.iv.next = add nuw nsw i64 %indvars.iv, 1
  %21 = load ptr, ptr %2, align 8, !tbaa !11
  %22 = getelementptr i8, ptr %21, i64 4
  %.val78 = load i32, ptr %22, align 4, !tbaa !3
  %23 = sext i32 %.val78 to i64
  %24 = icmp slt i64 %indvars.iv.next, %23
  br i1 %24, label %.lr.ph, label %.critedge.preheader, !llvm.loop !75

.critedge2.preheader:                             ; preds = %.critedge
  %25 = icmp sgt i32 %.val77, 0
  br i1 %25, label %.lr.ph91, label %.critedge6

.lr.ph88:                                         ; preds = %.critedge.preheader, %.critedge
  %26 = phi ptr [ %34, %.critedge ], [ %21, %.critedge.preheader ]
  %indvars.iv100 = phi i64 [ %indvars.iv.next101, %.critedge ], [ 0, %.critedge.preheader ]
  %27 = getelementptr i8, ptr %26, i64 8
  %.val81 = load ptr, ptr %27, align 8, !tbaa !10
  %28 = getelementptr inbounds nuw ptr, ptr %.val81, i64 %indvars.iv100
  %29 = load ptr, ptr %28, align 8, !tbaa !18
  %30 = load ptr, ptr %29, align 8, !tbaa !19
  %31 = icmp eq ptr %30, null
  br i1 %31, label %.critedge, label %32

32:                                               ; preds = %.lr.ph88
  %33 = tail call ptr @Hop_ObjRepr(ptr noundef nonnull %29) #10
  store ptr %33, ptr %33, align 8, !tbaa !19
  store ptr %33, ptr %29, align 8, !tbaa !19
  %.pre110 = load ptr, ptr %2, align 8, !tbaa !11
  br label %.critedge

.critedge:                                        ; preds = %.lr.ph88, %32
  %34 = phi ptr [ %26, %.lr.ph88 ], [ %.pre110, %32 ]
  %indvars.iv.next101 = add nuw nsw i64 %indvars.iv100, 1
  %35 = getelementptr i8, ptr %34, i64 4
  %.val77 = load i32, ptr %35, align 4, !tbaa !3
  %36 = sext i32 %.val77 to i64
  %37 = icmp slt i64 %indvars.iv.next101, %36
  br i1 %37, label %.lr.ph88, label %.critedge2.preheader, !llvm.loop !76

.critedge4.preheader:                             ; preds = %.critedge2
  %38 = icmp sgt i32 %.val76, 0
  br i1 %38, label %.lr.ph98, label %.critedge6

.lr.ph91:                                         ; preds = %.critedge2.preheader, %.critedge2
  %indvars.iv103 = phi i64 [ %indvars.iv.next104, %.critedge2 ], [ 0, %.critedge2.preheader ]
  %39 = phi ptr [ %53, %.critedge2 ], [ %34, %.critedge2.preheader ]
  %40 = getelementptr i8, ptr %39, i64 8
  %.val80 = load ptr, ptr %40, align 8, !tbaa !10
  %41 = getelementptr inbounds nuw ptr, ptr %.val80, i64 %indvars.iv103
  %42 = load ptr, ptr %41, align 8, !tbaa !18
  %43 = load ptr, ptr %42, align 8, !tbaa !19
  %44 = icmp eq ptr %43, null
  br i1 %44, label %.critedge2, label %45

45:                                               ; preds = %.lr.ph91
  %46 = tail call ptr @Hop_ObjRepr(ptr noundef nonnull %42) #10
  %47 = getelementptr inbounds nuw i8, ptr %46, i64 36
  %48 = load i32, ptr %47, align 4, !tbaa !24
  %49 = getelementptr inbounds nuw i8, ptr %42, i64 36
  %50 = load i32, ptr %49, align 4, !tbaa !24
  %51 = icmp sgt i32 %48, %50
  br i1 %51, label %52, label %.critedge2.sink.split

52:                                               ; preds = %45
  store ptr %42, ptr %46, align 8, !tbaa !19
  br label %.critedge2.sink.split

.critedge2.sink.split:                            ; preds = %45, %52
  %.sink = phi ptr [ %42, %52 ], [ %46, %45 ]
  store ptr %.sink, ptr %42, align 8, !tbaa !19
  br label %.critedge2

.critedge2:                                       ; preds = %.critedge2.sink.split, %.lr.ph91
  %indvars.iv.next104 = add nuw nsw i64 %indvars.iv103, 1
  %53 = load ptr, ptr %2, align 8, !tbaa !11
  %54 = getelementptr i8, ptr %53, i64 4
  %.val76 = load i32, ptr %54, align 4, !tbaa !3
  %55 = sext i32 %.val76 to i64
  %56 = icmp slt i64 %indvars.iv.next104, %55
  br i1 %56, label %.lr.ph91, label %.critedge4.preheader, !llvm.loop !77

.lr.ph98:                                         ; preds = %.critedge4.preheader, %.critedge4
  %57 = phi ptr [ %70, %.critedge4 ], [ %53, %.critedge4.preheader ]
  %indvars.iv106 = phi i64 [ %indvars.iv.next107, %.critedge4 ], [ 0, %.critedge4.preheader ]
  %.06096 = phi i32 [ %.161, %.critedge4 ], [ 0, %.critedge4.preheader ]
  %58 = getelementptr i8, ptr %57, i64 8
  %.val79 = load ptr, ptr %58, align 8, !tbaa !10
  %59 = getelementptr inbounds nuw ptr, ptr %.val79, i64 %indvars.iv106
  %60 = load ptr, ptr %59, align 8, !tbaa !18
  %61 = load ptr, ptr %60, align 8, !tbaa !19
  %62 = icmp eq ptr %61, null
  br i1 %62, label %.critedge4, label %63

63:                                               ; preds = %.lr.ph98
  %64 = icmp eq ptr %61, %60
  br i1 %64, label %68, label %65

65:                                               ; preds = %63
  %66 = getelementptr i8, ptr %60, i64 32
  %.val83 = load i32, ptr %66, align 8
  %.not = icmp ugt i32 %.val83, 63
  %67 = zext i1 %.not to i32
  %spec.select = add nsw i32 %.06096, %67
  br label %68

68:                                               ; preds = %65, %63
  %.262 = phi i32 [ %.06096, %63 ], [ %spec.select, %65 ]
  %69 = tail call ptr @Hop_ObjRepr(ptr noundef nonnull %60) #10
  %.pre113 = load ptr, ptr %2, align 8, !tbaa !11
  br label %.critedge4

.critedge4:                                       ; preds = %.lr.ph98, %68
  %70 = phi ptr [ %57, %.lr.ph98 ], [ %.pre113, %68 ]
  %.161 = phi i32 [ %.06096, %.lr.ph98 ], [ %.262, %68 ]
  %indvars.iv.next107 = add nuw nsw i64 %indvars.iv106, 1
  %71 = getelementptr i8, ptr %70, i64 4
  %.val = load i32, ptr %71, align 4, !tbaa !3
  %72 = sext i32 %.val to i64
  %73 = icmp slt i64 %indvars.iv.next107, %72
  br i1 %73, label %.lr.ph98, label %.critedge6, !llvm.loop !78

.critedge6:                                       ; preds = %.critedge4, %1, %.critedge.preheader, %.critedge2.preheader, %.critedge4.preheader
  %.060.lcssa = phi i32 [ 0, %.critedge4.preheader ], [ 0, %.critedge2.preheader ], [ 0, %.critedge.preheader ], [ 0, %1 ], [ %.161, %.critedge4 ]
  ret i32 %.060.lcssa
}